; Function Attrs: nounwind uwtable
define hidden noalias ptr @mi_heap_strdup(ptr noundef %0, ptr noundef %1) local_unnamed_addr #3 {
  %3 = icmp eq ptr %1, null
  br i1 %3, label %25, label %4

4:                                                ; preds = %2
  %5 = tail call i64 @_mi_strlen(ptr noundef nonnull %1) #19
  %6 = add i64 %5, 1
  %7 = icmp ult i64 %6, 1025
  br i1 %7, label %8, label %mi_heap_malloc.exit, !prof !8

8:                                                ; preds = %4
  %9 = add nsw i64 %5, 8
  %10 = lshr i64 %9, 3
  %11 = getelementptr inbounds nuw i8, ptr %0, i64 232
  %12 = getelementptr inbounds nuw [129 x ptr], ptr %11, i64 0, i64 %10
  %13 = load ptr, ptr %12, align 8, !tbaa !9
  %14 = getelementptr inbounds nuw i8, ptr %13, i64 16
  %15 = load ptr, ptr %14, align 8, !tbaa !11
  %16 = icmp eq ptr %15, null
  br i1 %16, label %mi_heap_malloc.exit, label %mi_heap_malloc.exit.thread, !prof !18

mi_heap_malloc.exit.thread:                       ; preds = %8
  %.val.i.i.i.i.i = load i64, ptr %15, align 8, !tbaa !19
  %17 = inttoptr i64 %.val.i.i.i.i.i to ptr
  store ptr %17, ptr %14, align 8, !tbaa !11
  %18 = getelementptr inbounds nuw i8, ptr %13, i64 32
  %19 = load i16, ptr %18, align 8, !tbaa !21
  %20 = add i16 %19, 1
  store i16 %20, ptr %18, align 8, !tbaa !21
  br label %23

mi_heap_malloc.exit:                              ; preds = %4, %8
  %21 = tail call noalias ptr @_mi_malloc_generic(ptr noundef %0, i64 noundef %6, i1 noundef zeroext false, i64 noundef 0) #19
  %22 = icmp eq ptr %21, null
  br i1 %22, label %25, label %23

23:                                               ; preds = %mi_heap_malloc.exit.thread, %mi_heap_malloc.exit
  %.0.i.i.i14 = phi ptr [ %15, %mi_heap_malloc.exit.thread ], [ %21, %mi_heap_malloc.exit ]
  tail call void @llvm.memcpy.p0.p0.i64(ptr nonnull align 1 %.0.i.i.i14, ptr nonnull readonly align 1 %1, i64 %5, i1 false)
  %24 = getelementptr inbounds nuw i8, ptr %.0.i.i.i14, i64 %5
  store i8 0, ptr %24, align 1, !tbaa !24
  br label %25

25:                                               ; preds = %23, %mi_heap_malloc.exit, %2
  %.0 = phi ptr [ null, %2 ], [ %.0.i.i.i14, %23 ], [ null, %mi_heap_malloc.exit ]
  ret ptr %.0
}